; Function Attrs: nounwind uwtable
define void @Ssw_FrmStop(ptr noundef captures(none) %0) local_unnamed_addr #2 {
  %2 = getelementptr inbounds nuw i8, ptr %0, i64 16
  %3 = load ptr, ptr %2, align 8
  %.not = icmp eq ptr %3, null
  br i1 %.not, label %5, label %4

4:                                                ; preds = %1
  tail call void @Aig_ManStop(ptr noundef nonnull %3) #9
  br label %5

5:                                                ; preds = %4, %1
  %6 = getelementptr inbounds nuw i8, ptr %0, i64 24
  %7 = load ptr, ptr %6, align 8
  %8 = getelementptr inbounds nuw i8, ptr %7, i64 8
  %9 = load ptr, ptr %8, align 8
  %.not.i = icmp eq ptr %9, null
  br i1 %.not.i, label %11, label %10

10:                                               ; preds = %5
  tail call void @free(ptr noundef nonnull %9) #9
  br label %11

11:                                               ; preds = %5, %10
  tail call void @free(ptr noundef nonnull %7) #9
  tail call void @free(ptr noundef nonnull %0) #9
  ret void
}